; Function Attrs: cold nounwind optsize uwtable
define internal range(i32 -2147483648, 1) i32 @rv40_decode_init(ptr noundef %0) #1 {
  %2 = getelementptr inbounds nuw i8, ptr %0, i64 32
  %3 = load ptr, ptr %2, align 8, !tbaa !4
  %4 = getelementptr inbounds nuw i8, ptr %3, i64 6600
  store i32 0, ptr %4, align 8, !tbaa !27
  %5 = tail call i32 @ff_rv34_decode_init(ptr noundef %0) #8
  %6 = icmp slt i32 %5, 0
  br i1 %6, label %16, label %7

7:                                                ; preds = %1
  %8 = getelementptr inbounds nuw i8, ptr %3, i64 6776
  store ptr @rv40_parse_slice_header, ptr %8, align 8, !tbaa !55
  %9 = getelementptr inbounds nuw i8, ptr %3, i64 6792
  store ptr @rv40_decode_intra_types, ptr %9, align 8, !tbaa !56
  %10 = getelementptr inbounds nuw i8, ptr %3, i64 6784
  store ptr @rv40_decode_mb_info, ptr %10, align 8, !tbaa !57
  %11 = getelementptr inbounds nuw i8, ptr %3, i64 6800
  store ptr @rv40_loop_filter, ptr %11, align 8, !tbaa !58
  %12 = getelementptr inbounds nuw i8, ptr %3, i64 6016
  store ptr @rv40_luma_dc_quant, ptr %12, align 8, !tbaa !59
  %13 = getelementptr inbounds nuw i8, ptr %3, i64 6024
  store ptr getelementptr inbounds nuw (i8, ptr @rv40_luma_dc_quant, i64 32), ptr %13, align 8, !tbaa !60
  %14 = getelementptr inbounds nuw i8, ptr %3, i64 4808
  tail call void @ff_rv40dsp_init(ptr noundef nonnull %14) #8
  %15 = tail call i32 @pthread_once(ptr noundef nonnull @rv40_decode_init.init_static_once, ptr noundef nonnull @rv40_init_tables) #8
  br label %16

16:                                               ; preds = %1, %7
  %.0 = phi i32 [ 0, %7 ], [ %5, %1 ]
  ret i32 %.0
}